ccopy_reg
_reconstructor
p0
(cpandatools.AthenaUtils
ConfigAttr
p1
c__builtin__
dict
p2
(dp3
S'input'
p4
g0
(g1
g2
(dp5
tp6
Rp7
sS'other'
p8
g0
(g1
g2
(dp9
tp10
Rp11
sS'output'
p12
g0
(g1
g2
(dp13
S'outStreamG'
p14
(lp15
(lp16
S'PAOD_2L'
p17
aS'PAOD_2L.pool.root'
p18
aa(lp19
S'PAOD_2LDF'
p20
aS'PAOD_2LDF.pool.root'
p21
aasS'alloutputs'
p22
(lp23
S'PAOD_2LDF.pool.root'
p24
astp25
Rp26
stp27
Rp28
.